target datalayout = "e-m:e-p270:32:32-p271:32:32-p272:64:64-i64:64-i128:128-f80:128-n8:16:32:64-S128"
target triple = "x86_64-pc-linux-gnu"

%"class.duckdb_re2::CharClass" = type <{ i8, [3 x i8], i32, ptr, i32, [4 x i8] }>

; Function Attrs: mustprogress uwtable
define hidden noundef ptr @_ZN10duckdb_re29CharClass3NewEm(i64 noundef %0) #4 align 2 {
  %2 = alloca i64, align 8
  %3 = alloca ptr, align 8
  %4 = alloca ptr, align 8
  store i64 %0, ptr %2, align 8, !tbaa !85
  call void @llvm.lifetime.start.p0(i64 8, ptr %3) #18
  call void @llvm.lifetime.start.p0(i64 8, ptr %4) #18
  %5 = load i64, ptr %2, align 8, !tbaa !85
  %6 = mul i64 %5, 8
  %7 = add i64 24, %6
  %8 = call noalias noundef nonnull ptr @_Znam(i64 noundef %7) #22
  store ptr %8, ptr %4, align 8, !tbaa !23
  %9 = load ptr, ptr %4, align 8, !tbaa !23
  store ptr %9, ptr %3, align 8, !tbaa !48
  %10 = load ptr, ptr %4, align 8, !tbaa !23
  %11 = getelementptr inbounds nuw i8, ptr %10, i64 24
  %12 = load ptr, ptr %3, align 8, !tbaa !48
  %13 = getelementptr inbounds nuw %"class.duckdb_re2::CharClass", ptr %12, i32 0, i32 3
  store ptr %11, ptr %13, align 8, !tbaa !179
  %14 = load ptr, ptr %3, align 8, !tbaa !48
  %15 = getelementptr inbounds nuw %"class.duckdb_re2::CharClass", ptr %14, i32 0, i32 4
  store i32 0, ptr %15, align 8, !tbaa !181
  %16 = load ptr, ptr %3, align 8, !tbaa !48
  %17 = getelementptr inbounds nuw %"class.duckdb_re2::CharClass", ptr %16, i32 0, i32 0
  store i8 0, ptr %17, align 8, !tbaa !182
  %18 = load ptr, ptr %3, align 8, !tbaa !48
  %19 = getelementptr inbounds nuw %"class.duckdb_re2::CharClass", ptr %18, i32 0, i32 2
  store i32 0, ptr %19, align 4, !tbaa !183
  %20 = load ptr, ptr %3, align 8, !tbaa !48
  call void @llvm.lifetime.end.p0(i64 8, ptr %4) #18
  call void @llvm.lifetime.end.p0(i64 8, ptr %3) #18
  ret ptr %20
}