; Function Attrs: mustprogress uwtable
define hidden noundef nonnull ptr @_ZN10duckdb_re29CharClass3NewEm(i64 noundef %0) local_unnamed_addr #7 align 2 {
  %2 = shl i64 %0, 3
  %3 = add i64 %2, 24
  %4 = tail call noalias noundef nonnull ptr @_Znam(i64 noundef %3) #31
  %5 = getelementptr inbounds nuw i8, ptr %4, i64 24
  %6 = getelementptr inbounds nuw i8, ptr %4, i64 8
  store ptr %5, ptr %6, align 8, !tbaa !66
  %7 = getelementptr inbounds nuw i8, ptr %4, i64 16
  store i32 0, ptr %7, align 8, !tbaa !65
  store i8 0, ptr %4, align 8, !tbaa !146
  %8 = getelementptr inbounds nuw i8, ptr %4, i64 4
  store i32 0, ptr %8, align 4, !tbaa !62
  ret ptr %4
}